target datalayout = "e-m:e-p270:32:32-p271:32:32-p272:64:64-i64:64-i128:128-f80:128-n8:16:32:64-S128"
target triple = "x86_64-unknown-linux-gnu"

@_ZN7rocksdb10WriteBatchC1EOS0_ = unnamed_addr alias void (ptr, ptr), ptr @_ZN7rocksdb10WriteBatchC2EOS0_

; Function Attrs: mustprogress nounwind uwtable
define noundef nonnull align 8 dereferenceable(96) ptr @_ZN7rocksdb10WriteBatchaSEOS0_(ptr noundef nonnull align 8 dereferenceable(96) %this, ptr noundef nonnull align 8 dereferenceable(96) %src) #1 align 2 {
entry:
  %this.addr = alloca ptr, align 8
  %src.addr = alloca ptr, align 8
  store ptr %this, ptr %this.addr, align 8
  store ptr %src, ptr %src.addr, align 8
  %this1 = load ptr, ptr %this.addr, align 8
  %0 = load ptr, ptr %src.addr, align 8
  %cmp = icmp ne ptr %0, %this1
  br i1 %cmp, label %if.then, label %if.end

if.then:                                          ; preds = %entry
  %vtable = load ptr, ptr %this1, align 8
  %vfn = getelementptr inbounds ptr, ptr %vtable, i64 0
  %1 = load ptr, ptr %vfn, align 8
  call void %1(ptr noundef nonnull align 8 dereferenceable(96) %this1) #3
  %2 = load ptr, ptr %src.addr, align 8
  call void @_ZN7rocksdb10WriteBatchC1EOS0_(ptr noundef nonnull align 8 dereferenceable(96) %this1, ptr noundef nonnull align 8 dereferenceable(96) %2) #3
  br label %if.end

if.end:                                           ; preds = %if.then, %entry
  ret ptr %this1
}